#include <math.h>
#include <stdio.h>
#include <stdlib.h>
#include <string.h>

void main()
{
	int a[1000][1000],i,j,c,b,s,n;
    scanf("%d",&n);
	for(i=0;i<n;i++)
	{
		for(j=0;j<n;j++)
			scanf("%d",&a[i][j]);
	}
	for(i=0;i<n;i++)
	{
		for(j=0;j<n;j++)
		{
			if(a[i][j]==0&&a[i][j+1]==0&&a[i+1][j]==0&&a[i-1][j]==255&&a[i][j-1]==255)
			{
				c=i;
				b=j;
			}
			if(a[i][j]==0&&a[i][j-1]==0&&a[i-1][j]==0&&a[i+1][j]==255&&a[i][j+1]==255)
			{
		    	c=i-c-1;
				b=j-b-1;
			}
		}
	}
	s=c*b;
	printf("%d",s);
}







