; ModuleID = '15/329.c'
source_filename = "15/329.c"
target datalayout = "e-m:e-p270:32:32-p271:32:32-p272:64:64-i64:64-f80:128-n8:16:32:64-S128"
target triple = "x86_64-pc-linux-gnu"

@.str = private unnamed_addr constant [3 x i8] c"%d\00", align 1

; Function Attrs: noinline nounwind uwtable
define dso_local void @main() #0 {
  %1 = alloca [1000 x [1000 x i32]], align 16
  %2 = alloca i32, align 4
  %3 = alloca i32, align 4
  %4 = alloca i32, align 4
  %5 = alloca i32, align 4
  %6 = alloca i32, align 4
  %7 = alloca i32, align 4
  %8 = call i32 (i8*, ...) @__isoc99_scanf(i8* getelementptr inbounds ([3 x i8], [3 x i8]* @.str, i64 0, i64 0), i32* %7)
  store i32 0, i32* %2, align 4
  br label %9

9:                                                ; preds = %30, %0
  %10 = load i32, i32* %2, align 4
  %11 = load i32, i32* %7, align 4
  %12 = icmp slt i32 %10, %11
  br i1 %12, label %13, label %33

13:                                               ; preds = %9
  store i32 0, i32* %3, align 4
  br label %14

14:                                               ; preds = %26, %13
  %15 = load i32, i32* %3, align 4
  %16 = load i32, i32* %7, align 4
  %17 = icmp slt i32 %15, %16
  br i1 %17, label %18, label %29

18:                                               ; preds = %14
  %19 = load i32, i32* %2, align 4
  %20 = sext i32 %19 to i64
  %21 = getelementptr inbounds [1000 x [1000 x i32]], [1000 x [1000 x i32]]* %1, i64 0, i64 %20
  %22 = load i32, i32* %3, align 4
  %23 = sext i32 %22 to i64
  %24 = getelementptr inbounds [1000 x i32], [1000 x i32]* %21, i64 0, i64 %23
  %25 = call i32 (i8*, ...) @__isoc99_scanf(i8* getelementptr inbounds ([3 x i8], [3 x i8]* @.str, i64 0, i64 0), i32* %24)
  br label %26

26:                                               ; preds = %18
  %27 = load i32, i32* %3, align 4
  %28 = add nsw i32 %27, 1
  store i32 %28, i32* %3, align 4
  br label %14

29:                                               ; preds = %14
  br label %30

30:                                               ; preds = %29
  %31 = load i32, i32* %2, align 4
  %32 = add nsw i32 %31, 1
  store i32 %32, i32* %2, align 4
  br label %9

33:                                               ; preds = %9
  store i32 0, i32* %2, align 4
  br label %34

34:                                               ; preds = %158, %33
  %35 = load i32, i32* %2, align 4
  %36 = load i32, i32* %7, align 4
  %37 = icmp slt i32 %35, %36
  br i1 %37, label %38, label %161

38:                                               ; preds = %34
  store i32 0, i32* %3, align 4
  br label %39

39:                                               ; preds = %154, %38
  %40 = load i32, i32* %3, align 4
  %41 = load i32, i32* %7, align 4
  %42 = icmp slt i32 %40, %41
  br i1 %42, label %43, label %157

43:                                               ; preds = %39
  %44 = load i32, i32* %2, align 4
  %45 = sext i32 %44 to i64
  %46 = getelementptr inbounds [1000 x [1000 x i32]], [1000 x [1000 x i32]]* %1, i64 0, i64 %45
  %47 = load i32, i32* %3, align 4
  %48 = sext i32 %47 to i64
  %49 = getelementptr inbounds [1000 x i32], [1000 x i32]* %46, i64 0, i64 %48
  %50 = load i32, i32* %49, align 4
  %51 = icmp eq i32 %50, 0
  br i1 %51, label %52, label %95

52:                                               ; preds = %43
  %53 = load i32, i32* %2, align 4
  %54 = sext i32 %53 to i64
  %55 = getelementptr inbounds [1000 x [1000 x i32]], [1000 x [1000 x i32]]* %1, i64 0, i64 %54
  %56 = load i32, i32* %3, align 4
  %57 = add nsw i32 %56, 1
  %58 = sext i32 %57 to i64
  %59 = getelementptr inbounds [1000 x i32], [1000 x i32]* %55, i64 0, i64 %58
  %60 = load i32, i32* %59, align 4
  %61 = icmp eq i32 %60, 0
  br i1 %61, label %62, label %95

62:                                               ; preds = %52
  %63 = load i32, i32* %2, align 4
  %64 = add nsw i32 %63, 1
  %65 = sext i32 %64 to i64
  %66 = getelementptr inbounds [1000 x [1000 x i32]], [1000 x [1000 x i32]]* %1, i64 0, i64 %65
  %67 = load i32, i32* %3, align 4
  %68 = sext i32 %67 to i64
  %69 = getelementptr inbounds [1000 x i32], [1000 x i32]* %66, i64 0, i64 %68
  %70 = load i32, i32* %69, align 4
  %71 = icmp eq i32 %70, 0
  br i1 %71, label %72, label %95

72:                                               ; preds = %62
  %73 = load i32, i32* %2, align 4
  %74 = sub nsw i32 %73, 1
  %75 = sext i32 %74 to i64
  %76 = getelementptr inbounds [1000 x [1000 x i32]], [1000 x [1000 x i32]]* %1, i64 0, i64 %75
  %77 = load i32, i32* %3, align 4
  %78 = sext i32 %77 to i64
  %79 = getelementptr inbounds [1000 x i32], [1000 x i32]* %76, i64 0, i64 %78
  %80 = load i32, i32* %79, align 4
  %81 = icmp eq i32 %80, 255
  br i1 %81, label %82, label %95

82:                                               ; preds = %72
  %83 = load i32, i32* %2, align 4
  %84 = sext i32 %83 to i64
  %85 = getelementptr inbounds [1000 x [1000 x i32]], [1000 x [1000 x i32]]* %1, i64 0, i64 %84
  %86 = load i32, i32* %3, align 4
  %87 = sub nsw i32 %86, 1
  %88 = sext i32 %87 to i64
  %89 = getelementptr inbounds [1000 x i32], [1000 x i32]* %85, i64 0, i64 %88
  %90 = load i32, i32* %89, align 4
  %91 = icmp eq i32 %90, 255
  br i1 %91, label %92, label %95

92:                                               ; preds = %82
  %93 = load i32, i32* %2, align 4
  store i32 %93, i32* %4, align 4
  %94 = load i32, i32* %3, align 4
  store i32 %94, i32* %5, align 4
  br label %95

95:                                               ; preds = %92, %82, %72, %62, %52, %43
  %96 = load i32, i32* %2, align 4
  %97 = sext i32 %96 to i64
  %98 = getelementptr inbounds [1000 x [1000 x i32]], [1000 x [1000 x i32]]* %1, i64 0, i64 %97
  %99 = load i32, i32* %3, align 4
  %100 = sext i32 %99 to i64
  %101 = getelementptr inbounds [1000 x i32], [1000 x i32]* %98, i64 0, i64 %100
  %102 = load i32, i32* %101, align 4
  %103 = icmp eq i32 %102, 0
  br i1 %103, label %104, label %153

104:                                              ; preds = %95
  %105 = load i32, i32* %2, align 4
  %106 = sext i32 %105 to i64
  %107 = getelementptr inbounds [1000 x [1000 x i32]], [1000 x [1000 x i32]]* %1, i64 0, i64 %106
  %108 = load i32, i32* %3, align 4
  %109 = sub nsw i32 %108, 1
  %110 = sext i32 %109 to i64
  %111 = getelementptr inbounds [1000 x i32], [1000 x i32]* %107, i64 0, i64 %110
  %112 = load i32, i32* %111, align 4
  %113 = icmp eq i32 %112, 0
  br i1 %113, label %114, label %153

114:                                              ; preds = %104
  %115 = load i32, i32* %2, align 4
  %116 = sub nsw i32 %115, 1
  %117 = sext i32 %116 to i64
  %118 = getelementptr inbounds [1000 x [1000 x i32]], [1000 x [1000 x i32]]* %1, i64 0, i64 %117
  %119 = load i32, i32* %3, align 4
  %120 = sext i32 %119 to i64
  %121 = getelementptr inbounds [1000 x i32], [1000 x i32]* %118, i64 0, i64 %120
  %122 = load i32, i32* %121, align 4
  %123 = icmp eq i32 %122, 0
  br i1 %123, label %124, label %153

124:                                              ; preds = %114
  %125 = load i32, i32* %2, align 4
  %126 = add nsw i32 %125, 1
  %127 = sext i32 %126 to i64
  %128 = getelementptr inbounds [1000 x [1000 x i32]], [1000 x [1000 x i32]]* %1, i64 0, i64 %127
  %129 = load i32, i32* %3, align 4
  %130 = sext i32 %129 to i64
  %131 = getelementptr inbounds [1000 x i32], [1000 x i32]* %128, i64 0, i64 %130
  %132 = load i32, i32* %131, align 4
  %133 = icmp eq i32 %132, 255
  br i1 %133, label %134, label %153

134:                                              ; preds = %124
  %135 = load i32, i32* %2, align 4
  %136 = sext i32 %135 to i64
  %137 = getelementptr inbounds [1000 x [1000 x i32]], [1000 x [1000 x i32]]* %1, i64 0, i64 %136
  %138 = load i32, i32* %3, align 4
  %139 = add nsw i32 %138, 1
  %140 = sext i32 %139 to i64
  %141 = getelementptr inbounds [1000 x i32], [1000 x i32]* %137, i64 0, i64 %140
  %142 = load i32, i32* %141, align 4
  %143 = icmp eq i32 %142, 255
  br i1 %143, label %144, label %153

144:                                              ; preds = %134
  %145 = load i32, i32* %2, align 4
  %146 = load i32, i32* %4, align 4
  %147 = sub nsw i32 %145, %146
  %148 = sub nsw i32 %147, 1
  store i32 %148, i32* %4, align 4
  %149 = load i32, i32* %3, align 4
  %150 = load i32, i32* %5, align 4
  %151 = sub nsw i32 %149, %150
  %152 = sub nsw i32 %151, 1
  store i32 %152, i32* %5, align 4
  br label %153

153:                                              ; preds = %144, %134, %124, %114, %104, %95
  br label %154

154:                                              ; preds = %153
  %155 = load i32, i32* %3, align 4
  %156 = add nsw i32 %155, 1
  store i32 %156, i32* %3, align 4
  br label %39

157:                                              ; preds = %39
  br label %158

158:                                              ; preds = %157
  %159 = load i32, i32* %2, align 4
  %160 = add nsw i32 %159, 1
  store i32 %160, i32* %2, align 4
  br label %34

161:                                              ; preds = %34
  %162 = load i32, i32* %4, align 4
  %163 = load i32, i32* %5, align 4
  %164 = mul nsw i32 %162, %163
  store i32 %164, i32* %6, align 4
  %165 = load i32, i32* %6, align 4
  %166 = call i32 (i8*, ...) @printf(i8* getelementptr inbounds ([3 x i8], [3 x i8]* @.str, i64 0, i64 0), i32 %165)
  ret void
}

declare dso_local i32 @__isoc99_scanf(i8*, ...) #1

declare dso_local i32 @printf(i8*, ...) #1


!llvm.module.flags = !{!0}
!llvm.ident = !{!1}

!0 = !{i32 1, !"wchar_size", i32 4}
!1 = !{!"clang version 10.0.0-4ubuntu1 "}
